target datalayout = "e-m:e-p270:32:32-p271:32:32-p272:64:64-i64:64-i128:128-f80:128-n8:16:32:64-S128"
target triple = "x86_64-unknown-linux-gnu"

%"class.google::protobuf::internal::InternalMetadata" = type { i64 }
%"struct.google::protobuf::internal::ArenaStringPtr" = type { %"class.google::protobuf::internal::TaggedStringPtr" }
%"class.google::protobuf::internal::TaggedStringPtr" = type { ptr }
%"class.google::protobuf::internal::CachedSize" = type { i32 }
%"class.google::protobuf::internal::HasBits" = type { [1 x i32] }
%"class.google::protobuf::Api" = type { %"class.google::protobuf::Message", %union.anon.5 }
%"class.google::protobuf::Message" = type { %"class.google::protobuf::MessageLite" }
%"class.google::protobuf::MessageLite" = type { ptr, %"class.google::protobuf::internal::InternalMetadata" }
%union.anon.5 = type { %"struct.google::protobuf::Api::Impl_" }
%"struct.google::protobuf::Api::Impl_" = type <{ %"class.google::protobuf::internal::HasBits", %"class.google::protobuf::internal::CachedSize", %"class.google::protobuf::RepeatedPtrField.3", %"class.google::protobuf::RepeatedPtrField", %"class.google::protobuf::RepeatedPtrField.4", %"struct.google::protobuf::internal::ArenaStringPtr", %"struct.google::protobuf::internal::ArenaStringPtr", ptr, i32, [4 x i8] }>
%"class.google::protobuf::RepeatedPtrField.3" = type { %"class.google::protobuf::internal::RepeatedPtrFieldBase" }
%"class.google::protobuf::internal::RepeatedPtrFieldBase" = type { ptr, i32, i32, ptr }
%"class.google::protobuf::RepeatedPtrField" = type { %"class.google::protobuf::internal::RepeatedPtrFieldBase" }
%"class.google::protobuf::RepeatedPtrField.4" = type { %"class.google::protobuf::internal::RepeatedPtrFieldBase" }
%"class.absl::lts_20230802::log_internal::NullStream" = type { i8 }
%"struct.google::protobuf::internal::RepeatedPtrFieldBase::Rep" = type { i32, [268435454 x ptr] }

; Function Attrs: noreturn nounwind uwtable
define linkonce_odr hidden void @__clang_call_terminate(ptr noundef %0) #6 comdat {
  %2 = call ptr @__cxa_begin_catch(ptr %0) #3
  call void @_ZSt9terminatev() #14
  unreachable
}

; Function Attrs: mustprogress nounwind uwtable
define linkonce_odr noundef i32 @_ZSt10__exchangeIiRiET_RS1_OT0_(ptr noundef nonnull align 4 dereferenceable(4) %__obj, ptr noundef nonnull align 4 dereferenceable(4) %__new_val) #5 comdat {
entry:
  %__obj.addr = alloca ptr, align 8
  %__new_val.addr = alloca ptr, align 8
  %__old_val = alloca i32, align 4
  store ptr %__obj, ptr %__obj.addr, align 8
  store ptr %__new_val, ptr %__new_val.addr, align 8
  %0 = load ptr, ptr %__obj.addr, align 8
  %1 = load i32, ptr %0, align 4
  store i32 %1, ptr %__old_val, align 4
  %2 = load ptr, ptr %__new_val.addr, align 8
  %3 = load i32, ptr %2, align 4
  %4 = load ptr, ptr %__obj.addr, align 8
  store i32 %3, ptr %4, align 4
  %5 = load i32, ptr %__old_val, align 4
  ret i32 %5
}

; Function Attrs: mustprogress nounwind uwtable
define linkonce_odr noundef i32 @_ZSt8exchangeIiRiET_RS1_OT0_(ptr noundef nonnull align 4 dereferenceable(4) %__obj, ptr noundef nonnull align 4 dereferenceable(4) %__new_val) #5 comdat personality ptr @__gxx_personality_v0 {
entry:
  %__obj.addr = alloca ptr, align 8
  %__new_val.addr = alloca ptr, align 8
  store ptr %__obj, ptr %__obj.addr, align 8
  store ptr %__new_val, ptr %__new_val.addr, align 8
  %0 = load ptr, ptr %__obj.addr, align 8
  %1 = load ptr, ptr %__new_val.addr, align 8
  %call = invoke noundef i32 @_ZSt10__exchangeIiRiET_RS1_OT0_(ptr noundef nonnull align 4 dereferenceable(4) %0, ptr noundef nonnull align 4 dereferenceable(4) %1)
          to label %invoke.cont unwind label %terminate.lpad

invoke.cont:                                      ; preds = %entry
  ret i32 %call

terminate.lpad:                                   ; preds = %entry
  %2 = landingpad { ptr, i32 }
          catch ptr null
  %3 = extractvalue { ptr, i32 } %2, 0
  call void @__clang_call_terminate(ptr %3) #14
  unreachable
}

; Function Attrs: mustprogress nounwind uwtable
define linkonce_odr hidden noundef ptr @_ZN6google8protobuf8internal20RepeatedPtrFieldBase3repEv(ptr noundef nonnull align 8 dereferenceable(24) %this) #5 comdat align 2 {
entry:
  %this.addr = alloca ptr, align 8
  store ptr %this, ptr %this.addr, align 8
  %this1 = load ptr, ptr %this.addr, align 8
  %tagged_rep_or_elem_ = getelementptr inbounds %"class.google::protobuf::internal::RepeatedPtrFieldBase", ptr %this1, i32 0, i32 0
  %0 = load ptr, ptr %tagged_rep_or_elem_, align 8
  %1 = ptrtoint ptr %0 to i64
  %sub = sub i64 %1, 1
  %2 = inttoptr i64 %sub to ptr
  ret ptr %2
}

; Function Attrs: mustprogress nounwind uwtable
define linkonce_odr hidden noundef zeroext i1 @_ZNK6google8protobuf8internal20RepeatedPtrFieldBase9using_ssoEv(ptr noundef nonnull align 8 dereferenceable(24) %this) #5 comdat align 2 {
entry:
  %this.addr = alloca ptr, align 8
  store ptr %this, ptr %this.addr, align 8
  %this1 = load ptr, ptr %this.addr, align 8
  %tagged_rep_or_elem_ = getelementptr inbounds %"class.google::protobuf::internal::RepeatedPtrFieldBase", ptr %this1, i32 0, i32 0
  %0 = load ptr, ptr %tagged_rep_or_elem_, align 8
  %1 = ptrtoint ptr %0 to i64
  %and = and i64 %1, 1
  %cmp = icmp eq i64 %and, 0
  ret i1 %cmp
}

; Function Attrs: mustprogress nounwind uwtable
define linkonce_odr hidden noundef i32 @_ZN6google8protobuf8internal20RepeatedPtrFieldBase19ExchangeCurrentSizeEi(ptr noundef nonnull align 8 dereferenceable(24) %this, i32 noundef %new_size) #5 comdat align 2 {
entry:
  %this.addr = alloca ptr, align 8
  %new_size.addr = alloca i32, align 4
  store ptr %this, ptr %this.addr, align 8
  store i32 %new_size, ptr %new_size.addr, align 4
  %this1 = load ptr, ptr %this.addr, align 8
  %current_size_ = getelementptr inbounds %"class.google::protobuf::internal::RepeatedPtrFieldBase", ptr %this1, i32 0, i32 1
  %call = call noundef i32 @_ZSt8exchangeIiRiET_RS1_OT0_(ptr noundef nonnull align 4 dereferenceable(4) %current_size_, ptr noundef nonnull align 4 dereferenceable(4) %new_size.addr) #3
  ret i32 %call
}

; Function Attrs: mustprogress uwtable
define linkonce_odr hidden void @_ZN6google8protobuf8internal18GenericTypeHandlerINS0_11MessageLiteEE5ClearEPS3_(ptr noundef %value) #4 comdat align 2 {
entry:
  %value.addr = alloca ptr, align 8
  store ptr %value, ptr %value.addr, align 8
  %0 = load ptr, ptr %value.addr, align 8
  %vtable = load ptr, ptr %0, align 8
  %vfn = getelementptr inbounds ptr, ptr %vtable, i64 3
  %1 = load ptr, ptr %vfn, align 8
  call void %1(ptr noundef nonnull align 8 dereferenceable(16) %0)
  ret void
}

; Function Attrs: mustprogress nounwind uwtable
define linkonce_odr hidden noundef ptr @_ZN6google8protobuf8internal20RepeatedPtrFieldBase4castINS1_18GenericTypeHandlerINS0_11MessageLiteEEEEEPNT_4TypeEPv(ptr noundef %element) #5 comdat align 2 {
entry:
  %element.addr = alloca ptr, align 8
  store ptr %element, ptr %element.addr, align 8
  %0 = load ptr, ptr %element.addr, align 8
  ret ptr %0
}

; Function Attrs: mustprogress uwtable
define linkonce_odr hidden noundef ptr @_ZN6google8protobuf8internal20RepeatedPtrFieldBase8elementsEv(ptr noundef nonnull align 8 dereferenceable(24) %this) #4 comdat align 2 {
entry:
  %this.addr = alloca ptr, align 8
  store ptr %this, ptr %this.addr, align 8
  %this1 = load ptr, ptr %this.addr, align 8
  %call = call noundef zeroext i1 @_ZNK6google8protobuf8internal20RepeatedPtrFieldBase9using_ssoEv(ptr noundef nonnull align 8 dereferenceable(24) %this1)
  br i1 %call, label %cond.true, label %cond.false

cond.true:                                        ; preds = %entry
  %tagged_rep_or_elem_ = getelementptr inbounds %"class.google::protobuf::internal::RepeatedPtrFieldBase", ptr %this1, i32 0, i32 0
  br label %cond.end

cond.false:                                       ; preds = %entry
  %call2 = call noundef ptr @_ZN6google8protobuf8internal20RepeatedPtrFieldBase3repEv(ptr noundef nonnull align 8 dereferenceable(24) %this1)
  %elements = getelementptr inbounds %"struct.google::protobuf::internal::RepeatedPtrFieldBase::Rep", ptr %call2, i32 0, i32 1
  %arraydecay = getelementptr inbounds [268435454 x ptr], ptr %elements, i64 0, i64 0
  br label %cond.end

cond.end:                                         ; preds = %cond.false, %cond.true
  %cond = phi ptr [ %tagged_rep_or_elem_, %cond.true ], [ %arraydecay, %cond.false ]
  ret ptr %cond
}

; Function Attrs: mustprogress uwtable
define linkonce_odr hidden void @_ZN6google8protobuf8internal20RepeatedPtrFieldBase13ClearNonEmptyINS1_18GenericTypeHandlerINS0_11MessageLiteEEEEEvv(ptr noundef nonnull align 8 dereferenceable(24) %this) #4 comdat align 2 {
entry:
  %this.addr = alloca ptr, align 8
  %n = alloca i32, align 4
  %elems = alloca ptr, align 8
  %i = alloca i32, align 4
  %ref.tmp = alloca %"class.absl::lts_20230802::log_internal::NullStream", align 1
  store ptr %this, ptr %this.addr, align 8
  %this1 = load ptr, ptr %this.addr, align 8
  %current_size_ = getelementptr inbounds %"class.google::protobuf::internal::RepeatedPtrFieldBase", ptr %this1, i32 0, i32 1
  %0 = load i32, ptr %current_size_, align 8
  store i32 %0, ptr %n, align 4
  %call = call noundef ptr @_ZN6google8protobuf8internal20RepeatedPtrFieldBase8elementsEv(ptr noundef nonnull align 8 dereferenceable(24) %this1)
  store ptr %call, ptr %elems, align 8
  store i32 0, ptr %i, align 4
  br label %while.cond

while.cond:                                       ; preds = %while.body, %entry
  br i1 false, label %while.body, label %while.end

while.body:                                       ; preds = %while.cond
  %call2 = call noundef nonnull align 1 dereferenceable(1) ptr @_ZN4absl12lts_2023080212log_internal10NullStream14InternalStreamEv(ptr noundef nonnull align 1 dereferenceable(1) %ref.tmp)
  br label %while.cond, !llvm.loop !28

while.end:                                        ; preds = %while.cond
  br label %do.body

do.body:                                          ; preds = %do.cond, %while.end
  %1 = load ptr, ptr %elems, align 8
  %2 = load i32, ptr %i, align 4
  %inc = add nsw i32 %2, 1
  store i32 %inc, ptr %i, align 4
  %idxprom = sext i32 %2 to i64
  %arrayidx = getelementptr inbounds ptr, ptr %1, i64 %idxprom
  %3 = load ptr, ptr %arrayidx, align 8
  %call3 = call noundef ptr @_ZN6google8protobuf8internal20RepeatedPtrFieldBase4castINS1_18GenericTypeHandlerINS0_11MessageLiteEEEEEPNT_4TypeEPv(ptr noundef %3)
  call void @_ZN6google8protobuf8internal18GenericTypeHandlerINS0_11MessageLiteEE5ClearEPS3_(ptr noundef %call3)
  br label %do.cond

do.cond:                                          ; preds = %do.body
  %4 = load i32, ptr %i, align 4
  %5 = load i32, ptr %n, align 4
  %cmp = icmp slt i32 %4, %5
  br i1 %cmp, label %do.body, label %do.end, !llvm.loop !29

do.end:                                           ; preds = %do.cond
  %call4 = call noundef i32 @_ZN6google8protobuf8internal20RepeatedPtrFieldBase19ExchangeCurrentSizeEi(ptr noundef nonnull align 8 dereferenceable(24) %this1, i32 noundef 0)
  ret void
}

; Function Attrs: mustprogress nounwind uwtable
define linkonce_odr hidden noundef nonnull align 1 dereferenceable(1) ptr @_ZN4absl12lts_2023080212log_internal10NullStream14InternalStreamEv(ptr noundef nonnull align 1 dereferenceable(1) %this) #5 comdat align 2 {
entry:
  %this.addr = alloca ptr, align 8
  store ptr %this, ptr %this.addr, align 8
  %this1 = load ptr, ptr %this.addr, align 8
  ret ptr %this1
}

; Function Attrs: mustprogress uwtable
define linkonce_odr hidden void @_ZN6google8protobuf8internal20RepeatedPtrFieldBase5ClearINS1_18GenericTypeHandlerINS0_6OptionEEEEEvv(ptr noundef nonnull align 8 dereferenceable(24) %this) #4 comdat align 2 {
entry:
  %this.addr = alloca ptr, align 8
  %n = alloca i32, align 4
  %ref.tmp = alloca %"class.absl::lts_20230802::log_internal::NullStream", align 1
  store ptr %this, ptr %this.addr, align 8
  %this1 = load ptr, ptr %this.addr, align 8
  %current_size_ = getelementptr inbounds %"class.google::protobuf::internal::RepeatedPtrFieldBase", ptr %this1, i32 0, i32 1
  %0 = load i32, ptr %current_size_, align 8
  store i32 %0, ptr %n, align 4
  br label %while.cond

while.cond:                                       ; preds = %while.body, %entry
  br i1 false, label %while.body, label %while.end

while.body:                                       ; preds = %while.cond
  %call = call noundef nonnull align 1 dereferenceable(1) ptr @_ZN4absl12lts_2023080212log_internal10NullStream14InternalStreamEv(ptr noundef nonnull align 1 dereferenceable(1) %ref.tmp)
  br label %while.cond, !llvm.loop !27

while.end:                                        ; preds = %while.cond
  %1 = load i32, ptr %n, align 4
  %cmp = icmp sgt i32 %1, 0
  br i1 %cmp, label %if.then, label %if.end

if.then:                                          ; preds = %while.end
  call void @_ZN6google8protobuf8internal20RepeatedPtrFieldBase13ClearNonEmptyINS1_18GenericTypeHandlerINS0_11MessageLiteEEEEEvv(ptr noundef nonnull align 8 dereferenceable(24) %this1)
  br label %if.end

if.end:                                           ; preds = %if.then, %while.end
  ret void
}

; Function Attrs: mustprogress uwtable
define linkonce_odr hidden void @_ZN6google8protobuf16RepeatedPtrFieldINS0_6OptionEE5ClearEv(ptr noundef nonnull align 8 dereferenceable(24) %this) #4 comdat align 2 {
entry:
  %this.addr = alloca ptr, align 8
  store ptr %this, ptr %this.addr, align 8
  %this1 = load ptr, ptr %this.addr, align 8
  call void @_ZN6google8protobuf8internal20RepeatedPtrFieldBase5ClearINS1_18GenericTypeHandlerINS0_6OptionEEEEEvv(ptr noundef nonnull align 8 dereferenceable(24) %this1)
  ret void
}

; Function Attrs: mustprogress uwtable
define void @_ZN6google8protobuf3Api13clear_optionsEv(ptr noundef nonnull align 8 dereferenceable(128) %this) #4 align 2 {
entry:
  %this.addr = alloca ptr, align 8
  store ptr %this, ptr %this.addr, align 8
  %this1 = load ptr, ptr %this.addr, align 8
  %0 = getelementptr inbounds %"class.google::protobuf::Api", ptr %this1, i32 0, i32 1
  %options_ = getelementptr inbounds %"struct.google::protobuf::Api::Impl_", ptr %0, i32 0, i32 3
  call void @_ZN6google8protobuf16RepeatedPtrFieldINS0_6OptionEE5ClearEv(ptr noundef nonnull align 8 dereferenceable(24) %options_)
  ret void
}